target datalayout = "e-m:e-p270:32:32-p271:32:32-p272:64:64-i64:64-i128:128-f80:128-n8:16:32:64-S128"
target triple = "x86_64-pc-linux-gnu"

%struct._object = type { %union.anon, ptr }
%union.anon = type { i64 }
%struct.PyVarObject = type { %struct._object, i64 }
%struct.anon = type { i32, i32 }
%struct.dequeobject = type { %struct.PyVarObject, ptr, ptr, i64, i64, i64, i64, i64, [16 x ptr], ptr }

@_Py_NoneStruct = external global %struct._object, align 8
@PyExc_IndexError = external global ptr, align 8
@.str.25 = private unnamed_addr constant [7 x i8] c"insert\00", align 1
@.str.41 = private unnamed_addr constant [34 x i8] c"deque already at its maximum size\00", align 1

; Function Attrs: alwaysinline nounwind uwtable
define internal void @Py_INCREF(ptr noundef %0) #4 {
  %2 = alloca ptr, align 8
  %3 = alloca i32, align 4
  %4 = alloca i32, align 4
  store ptr %0, ptr %2, align 8, !tbaa !4
  call void @llvm.lifetime.start.p0(i64 4, ptr %3) #7
  %5 = load ptr, ptr %2, align 8, !tbaa !4
  %6 = getelementptr inbounds nuw %struct._object, ptr %5, i32 0, i32 0
  %7 = getelementptr inbounds nuw %struct.anon, ptr %6, i32 0, i32 0
  %8 = load i32, ptr %7, align 8, !tbaa !39
  store i32 %8, ptr %3, align 4, !tbaa !13
  %9 = load i32, ptr %3, align 4, !tbaa !13
  %10 = icmp slt i32 %9, 0
  br i1 %10, label %11, label %12

11:                                               ; preds = %1
  store i32 1, ptr %4, align 4
  br label %18

12:                                               ; preds = %1
  %13 = load i32, ptr %3, align 4, !tbaa !13
  %14 = add i32 %13, 1
  %15 = load ptr, ptr %2, align 8, !tbaa !4
  %16 = getelementptr inbounds nuw %struct._object, ptr %15, i32 0, i32 0
  %17 = getelementptr inbounds nuw %struct.anon, ptr %16, i32 0, i32 0
  store i32 %14, ptr %17, align 8, !tbaa !39
  store i32 0, ptr %4, align 4
  br label %18

18:                                               ; preds = %12, %11
  call void @llvm.lifetime.end.p0(i64 4, ptr %3) #7
  %19 = load i32, ptr %4, align 4
  switch i32 %19, label %21 [
    i32 0, label %20
    i32 1, label %20
  ]

20:                                               ; preds = %18, %18
  ret void

21:                                               ; preds = %18
  unreachable
}

; Function Attrs: inlinehint nounwind uwtable
define internal ptr @_Py_NewRef(ptr noundef %0) #3 {
  %2 = alloca ptr, align 8
  store ptr %0, ptr %2, align 8, !tbaa !4
  %3 = load ptr, ptr %2, align 8, !tbaa !4
  call void @Py_INCREF(ptr noundef %3)
  %4 = load ptr, ptr %2, align 8, !tbaa !4
  ret ptr %4
}

; Function Attrs: nounwind uwtable
define internal ptr @deque_appendleft_impl(ptr noundef %0, ptr noundef %1) #0 {
  %3 = alloca ptr, align 8
  %4 = alloca ptr, align 8
  %5 = alloca ptr, align 8
  store ptr %0, ptr %4, align 8, !tbaa !43
  store ptr %1, ptr %5, align 8, !tbaa !4
  %6 = load ptr, ptr %4, align 8, !tbaa !43
  %7 = load ptr, ptr %5, align 8, !tbaa !4
  %8 = call ptr @_Py_NewRef(ptr noundef %7)
  %9 = load ptr, ptr %4, align 8, !tbaa !43
  %10 = getelementptr inbounds nuw %struct.dequeobject, ptr %9, i32 0, i32 6
  %11 = load i64, ptr %10, align 8, !tbaa !55
  %12 = call i32 @deque_appendleft_lock_held(ptr noundef %6, ptr noundef %8, i64 noundef %11)
  %13 = icmp slt i32 %12, 0
  br i1 %13, label %14, label %15

14:                                               ; preds = %2
  store ptr null, ptr %3, align 8
  br label %16

15:                                               ; preds = %2
  store ptr @_Py_NoneStruct, ptr %3, align 8
  br label %16

16:                                               ; preds = %15, %14
  %17 = load ptr, ptr %3, align 8
  ret ptr %17
}

; Function Attrs: inlinehint nounwind uwtable
define internal i64 @Py_SIZE(ptr noundef %0) #3 {
  %2 = alloca ptr, align 8
  store ptr %0, ptr %2, align 8, !tbaa !4
  %3 = load ptr, ptr %2, align 8, !tbaa !4
  %4 = getelementptr inbounds nuw %struct.PyVarObject, ptr %3, i32 0, i32 1
  %5 = load i64, ptr %4, align 8, !tbaa !72
  ret i64 %5
}

; Function Attrs: alwaysinline nounwind uwtable
define internal i32 @_Py_IsImmortal(ptr noundef %0) #4 {
  %2 = alloca ptr, align 8
  store ptr %0, ptr %2, align 8, !tbaa !4
  %3 = load ptr, ptr %2, align 8, !tbaa !4
  %4 = getelementptr inbounds nuw %struct._object, ptr %3, i32 0, i32 0
  %5 = getelementptr inbounds nuw %struct.anon, ptr %4, i32 0, i32 0
  %6 = load i32, ptr %5, align 8, !tbaa !39
  %7 = icmp slt i32 %6, 0
  %8 = zext i1 %7 to i32
  ret i32 %8
}

; Function Attrs: nounwind uwtable
define internal ptr @deque_insert_impl(ptr noundef %0, i64 noundef %1, ptr noundef %2) #0 {
  %4 = alloca ptr, align 8
  %5 = alloca ptr, align 8
  %6 = alloca i64, align 8
  %7 = alloca ptr, align 8
  %8 = alloca i64, align 8
  %9 = alloca ptr, align 8
  %10 = alloca i32, align 4
  store ptr %0, ptr %5, align 8, !tbaa !43
  store i64 %1, ptr %6, align 8, !tbaa !24
  store ptr %2, ptr %7, align 8, !tbaa !4
  call void @llvm.lifetime.start.p0(i64 8, ptr %8) #7
  %11 = load ptr, ptr %5, align 8, !tbaa !43
  %12 = call i64 @Py_SIZE(ptr noundef %11)
  store i64 %12, ptr %8, align 8, !tbaa !24
  call void @llvm.lifetime.start.p0(i64 8, ptr %9) #7
  %13 = load ptr, ptr %5, align 8, !tbaa !43
  %14 = getelementptr inbounds nuw %struct.dequeobject, ptr %13, i32 0, i32 6
  %15 = load i64, ptr %14, align 8, !tbaa !55
  %16 = load ptr, ptr %5, align 8, !tbaa !43
  %17 = call i64 @Py_SIZE(ptr noundef %16)
  %18 = icmp eq i64 %15, %17
  br i1 %18, label %19, label %21

19:                                               ; preds = %3
  %20 = load ptr, ptr @PyExc_IndexError, align 8, !tbaa !4
  call void @PyErr_SetString(ptr noundef %20, ptr noundef @.str.41)
  store ptr null, ptr %4, align 8
  store i32 1, ptr %10, align 4
  br label %71

21:                                               ; preds = %3
  %22 = load i64, ptr %6, align 8, !tbaa !24
  %23 = load i64, ptr %8, align 8, !tbaa !24
  %24 = icmp sge i64 %22, %23
  br i1 %24, label %25, label %29

25:                                               ; preds = %21
  %26 = load ptr, ptr %5, align 8, !tbaa !43
  %27 = load ptr, ptr %7, align 8, !tbaa !4
  %28 = call ptr @deque_append_impl(ptr noundef %26, ptr noundef %27)
  store ptr %28, ptr %4, align 8
  store i32 1, ptr %10, align 4
  br label %71

29:                                               ; preds = %21
  %30 = load i64, ptr %6, align 8, !tbaa !24
  %31 = load i64, ptr %8, align 8, !tbaa !24
  %32 = sub i64 0, %31
  %33 = icmp sle i64 %30, %32
  br i1 %33, label %37, label %34

34:                                               ; preds = %29
  %35 = load i64, ptr %6, align 8, !tbaa !24
  %36 = icmp eq i64 %35, 0
  br i1 %36, label %37, label %41

37:                                               ; preds = %34, %29
  %38 = load ptr, ptr %5, align 8, !tbaa !43
  %39 = load ptr, ptr %7, align 8, !tbaa !4
  %40 = call ptr @deque_appendleft_impl(ptr noundef %38, ptr noundef %39)
  store ptr %40, ptr %4, align 8
  store i32 1, ptr %10, align 4
  br label %71

41:                                               ; preds = %34
  %42 = load ptr, ptr %5, align 8, !tbaa !43
  %43 = load i64, ptr %6, align 8, !tbaa !24
  %44 = sub i64 0, %43
  %45 = call i32 @_deque_rotate(ptr noundef %42, i64 noundef %44)
  %46 = icmp ne i32 %45, 0
  br i1 %46, label %47, label %48

47:                                               ; preds = %41
  store ptr null, ptr %4, align 8
  store i32 1, ptr %10, align 4
  br label %71

48:                                               ; preds = %41
  %49 = load i64, ptr %6, align 8, !tbaa !24
  %50 = icmp slt i64 %49, 0
  br i1 %50, label %51, label %55

51:                                               ; preds = %48
  %52 = load ptr, ptr %5, align 8, !tbaa !43
  %53 = load ptr, ptr %7, align 8, !tbaa !4
  %54 = call ptr @deque_append_impl(ptr noundef %52, ptr noundef %53)
  store ptr %54, ptr %9, align 8, !tbaa !4
  br label %59

55:                                               ; preds = %48
  %56 = load ptr, ptr %5, align 8, !tbaa !43
  %57 = load ptr, ptr %7, align 8, !tbaa !4
  %58 = call ptr @deque_appendleft_impl(ptr noundef %56, ptr noundef %57)
  store ptr %58, ptr %9, align 8, !tbaa !4
  br label %59

59:                                               ; preds = %55, %51
  %60 = load ptr, ptr %9, align 8, !tbaa !4
  %61 = icmp eq ptr %60, null
  br i1 %61, label %62, label %63

62:                                               ; preds = %59
  store ptr null, ptr %4, align 8
  store i32 1, ptr %10, align 4
  br label %71

63:                                               ; preds = %59
  %64 = load ptr, ptr %9, align 8, !tbaa !4
  call void @Py_DECREF(ptr noundef %64)
  %65 = load ptr, ptr %5, align 8, !tbaa !43
  %66 = load i64, ptr %6, align 8, !tbaa !24
  %67 = call i32 @_deque_rotate(ptr noundef %65, i64 noundef %66)
  %68 = icmp ne i32 %67, 0
  br i1 %68, label %69, label %70

69:                                               ; preds = %63
  store ptr null, ptr %4, align 8
  store i32 1, ptr %10, align 4
  br label %71

70:                                               ; preds = %63
  store ptr @_Py_NoneStruct, ptr %4, align 8
  store i32 1, ptr %10, align 4
  br label %71

71:                                               ; preds = %70, %69, %62, %47, %37, %25, %19
  call void @llvm.lifetime.end.p0(i64 8, ptr %9) #7
  call void @llvm.lifetime.end.p0(i64 8, ptr %8) #7
  %72 = load ptr, ptr %4, align 8
  ret ptr %72
}

; Function Attrs: alwaysinline nounwind uwtable
define internal void @Py_DECREF(ptr noundef %0) #4 {
  %2 = alloca ptr, align 8
  store ptr %0, ptr %2, align 8, !tbaa !4
  %3 = load ptr, ptr %2, align 8, !tbaa !4
  %4 = call i32 @_Py_IsImmortal(ptr noundef %3)
  %5 = icmp ne i32 %4, 0
  br i1 %5, label %6, label %7

6:                                                ; preds = %1
  br label %16

7:                                                ; preds = %1
  %8 = load ptr, ptr %2, align 8, !tbaa !4
  %9 = getelementptr inbounds nuw %struct._object, ptr %8, i32 0, i32 0
  %10 = getelementptr inbounds nuw %struct.anon, ptr %9, i32 0, i32 0
  %11 = load i32, ptr %10, align 8, !tbaa !39
  %12 = add i32 %11, -1
  store i32 %12, ptr %10, align 8, !tbaa !39
  %13 = icmp eq i32 %12, 0
  br i1 %13, label %14, label %16

14:                                               ; preds = %7
  %15 = load ptr, ptr %2, align 8, !tbaa !4
  call void @_Py_Dealloc(ptr noundef %15)
  br label %16

16:                                               ; preds = %6, %14, %7
  ret void
}

; Function Attrs: nounwind uwtable
define internal ptr @deque_insert(ptr noundef %0, ptr noundef %1, i64 noundef %2) #0 {
  %4 = alloca ptr, align 8
  %5 = alloca ptr, align 8
  %6 = alloca ptr, align 8
  %7 = alloca i64, align 8
  %8 = alloca ptr, align 8
  %9 = alloca i64, align 8
  %10 = alloca ptr, align 8
  %11 = alloca i64, align 8
  %12 = alloca ptr, align 8
  %13 = alloca i32, align 4
  store ptr %0, ptr %5, align 8, !tbaa !4
  store ptr %1, ptr %6, align 8, !tbaa !22
  store i64 %2, ptr %7, align 8, !tbaa !24
  call void @llvm.lifetime.start.p0(i64 8, ptr %8) #7
  store ptr null, ptr %8, align 8, !tbaa !4
  call void @llvm.lifetime.start.p0(i64 8, ptr %9) #7
  call void @llvm.lifetime.start.p0(i64 8, ptr %10) #7
  %14 = load i64, ptr %7, align 8, !tbaa !24
  %15 = icmp sle i64 2, %14
  br i1 %15, label %16, label %19

16:                                               ; preds = %3
  %17 = load i64, ptr %7, align 8, !tbaa !24
  %18 = icmp sle i64 %17, 2
  br i1 %18, label %24, label %19

19:                                               ; preds = %16, %3
  %20 = load i64, ptr %7, align 8, !tbaa !24
  %21 = call i32 @_PyArg_CheckPositional(ptr noundef @.str.25, i64 noundef %20, i64 noundef 2, i64 noundef 2)
  %22 = icmp ne i32 %21, 0
  br i1 %22, label %24, label %23

23:                                               ; preds = %19
  br label %54

24:                                               ; preds = %19, %16
  call void @llvm.lifetime.start.p0(i64 8, ptr %11) #7
  store i64 -1, ptr %11, align 8, !tbaa !24
  call void @llvm.lifetime.start.p0(i64 8, ptr %12) #7
  %25 = load ptr, ptr %6, align 8, !tbaa !22
  %26 = getelementptr ptr, ptr %25, i64 0
  %27 = load ptr, ptr %26, align 8, !tbaa !4
  %28 = call ptr @_PyNumber_Index(ptr noundef %27)
  store ptr %28, ptr %12, align 8, !tbaa !4
  %29 = load ptr, ptr %12, align 8, !tbaa !4
  %30 = icmp ne ptr %29, null
  br i1 %30, label %31, label %35

31:                                               ; preds = %24
  %32 = load ptr, ptr %12, align 8, !tbaa !4
  %33 = call i64 @PyLong_AsSsize_t(ptr noundef %32)
  store i64 %33, ptr %11, align 8, !tbaa !24
  %34 = load ptr, ptr %12, align 8, !tbaa !4
  call void @Py_DECREF(ptr noundef %34)
  br label %35

35:                                               ; preds = %31, %24
  %36 = load i64, ptr %11, align 8, !tbaa !24
  %37 = icmp eq i64 %36, -1
  br i1 %37, label %38, label %42

38:                                               ; preds = %35
  %39 = call ptr @PyErr_Occurred()
  %40 = icmp ne ptr %39, null
  br i1 %40, label %41, label %42

41:                                               ; preds = %38
  store i32 2, ptr %13, align 4
  br label %44

42:                                               ; preds = %38, %35
  %43 = load i64, ptr %11, align 8, !tbaa !24
  store i64 %43, ptr %9, align 8, !tbaa !24
  store i32 0, ptr %13, align 4
  br label %44

44:                                               ; preds = %41, %42
  call void @llvm.lifetime.end.p0(i64 8, ptr %12) #7
  call void @llvm.lifetime.end.p0(i64 8, ptr %11) #7
  %45 = load i32, ptr %13, align 4
  switch i32 %45, label %56 [
    i32 0, label %46
    i32 2, label %54
  ]

46:                                               ; preds = %44
  %47 = load ptr, ptr %6, align 8, !tbaa !22
  %48 = getelementptr ptr, ptr %47, i64 1
  %49 = load ptr, ptr %48, align 8, !tbaa !4
  store ptr %49, ptr %10, align 8, !tbaa !4
  %50 = load ptr, ptr %5, align 8, !tbaa !4
  %51 = load i64, ptr %9, align 8, !tbaa !24
  %52 = load ptr, ptr %10, align 8, !tbaa !4
  %53 = call ptr @deque_insert_impl(ptr noundef %50, i64 noundef %51, ptr noundef %52)
  store ptr %53, ptr %8, align 8, !tbaa !4
  br label %54

54:                                               ; preds = %46, %44, %23
  %55 = load ptr, ptr %8, align 8, !tbaa !4
  store ptr %55, ptr %4, align 8
  store i32 1, ptr %13, align 4
  br label %56

56:                                               ; preds = %54, %44
  call void @llvm.lifetime.end.p0(i64 8, ptr %10) #7
  call void @llvm.lifetime.end.p0(i64 8, ptr %9) #7
  call void @llvm.lifetime.end.p0(i64 8, ptr %8) #7
  %57 = load ptr, ptr %4, align 8
  ret ptr %57
}