; Function Attrs: nounwind uwtable
define internal ptr @deque_insert(ptr noundef captures(none) %0, ptr noundef readonly captures(none) %1, i64 noundef %2) #0 {
  %or.cond = icmp eq i64 %2, 2
  br i1 %or.cond, label %6, label %4

4:                                                ; preds = %3
  %5 = tail call i32 @_PyArg_CheckPositional(ptr noundef nonnull @.str.25, i64 noundef %2, i64 noundef 2, i64 noundef 2) #9
  %.not = icmp eq i32 %5, 0
  br i1 %.not, label %deque_insert_impl.exit, label %6

6:                                                ; preds = %3, %4
  %7 = load ptr, ptr %1, align 8, !tbaa !21
  %8 = tail call ptr @_PyNumber_Index(ptr noundef %7) #9
  %.not21 = icmp eq ptr %8, null
  br i1 %.not21, label %Py_DECREF.exit.thread, label %9

9:                                                ; preds = %6
  %10 = tail call i64 @PyLong_AsSsize_t(ptr noundef nonnull %8) #9
  %11 = load i32, ptr %8, align 8, !tbaa !20
  %.not.i = icmp sgt i32 %11, -1
  br i1 %.not.i, label %12, label %Py_DECREF.exit

12:                                               ; preds = %9
  %13 = add nsw i32 %11, -1
  store i32 %13, ptr %8, align 8, !tbaa !20
  %14 = icmp eq i32 %13, 0
  br i1 %14, label %15, label %Py_DECREF.exit

15:                                               ; preds = %12
  tail call void @_Py_Dealloc(ptr noundef nonnull %8) #9
  br label %Py_DECREF.exit

Py_DECREF.exit:                                   ; preds = %15, %12, %9
  %16 = icmp eq i64 %10, -1
  br i1 %16, label %Py_DECREF.exit.thread, label %18

Py_DECREF.exit.thread:                            ; preds = %6, %Py_DECREF.exit
  %17 = tail call ptr @PyErr_Occurred() #9
  %.not22 = icmp eq ptr %17, null
  br i1 %.not22, label %18, label %deque_insert_impl.exit

18:                                               ; preds = %Py_DECREF.exit.thread, %Py_DECREF.exit
  %.01726.ph = phi i64 [ %10, %Py_DECREF.exit ], [ -1, %Py_DECREF.exit.thread ]
  %19 = getelementptr i8, ptr %1, i64 8
  %20 = load ptr, ptr %19, align 8, !tbaa !21
  %21 = getelementptr i8, ptr %0, i64 16
  %.val29.i = load i64, ptr %21, align 8, !tbaa !52
  %22 = getelementptr inbounds nuw i8, ptr %0, i64 64
  %23 = load i64, ptr %22, align 8, !tbaa !45
  %24 = icmp eq i64 %23, %.val29.i
  br i1 %24, label %25, label %27

25:                                               ; preds = %18
  %26 = load ptr, ptr @PyExc_IndexError, align 8, !tbaa !21
  tail call void @PyErr_SetString(ptr noundef %26, ptr noundef nonnull @.str.41) #9
  br label %deque_insert_impl.exit

27:                                               ; preds = %18
  %.not.i24 = icmp slt i64 %.01726.ph, %.val29.i
  br i1 %.not.i24, label %36, label %28

28:                                               ; preds = %27
  %29 = load i32, ptr %20, align 8, !tbaa !20
  %30 = icmp slt i32 %29, 0
  br i1 %30, label %deque_append_impl.exit.i, label %31

31:                                               ; preds = %28
  %32 = add nuw i32 %29, 1
  store i32 %32, ptr %20, align 8, !tbaa !20
  %.pre.i = load i64, ptr %22, align 8, !tbaa !45
  br label %deque_append_impl.exit.i

deque_append_impl.exit.i:                         ; preds = %31, %28
  %33 = phi i64 [ %23, %28 ], [ %.pre.i, %31 ]
  %34 = tail call fastcc i32 @deque_append_lock_held(ptr noundef nonnull %0, ptr noundef nonnull %20, i64 noundef %33)
  %35 = icmp slt i32 %34, 0
  %._Py_NoneStruct.i.i = select i1 %35, ptr null, ptr @_Py_NoneStruct
  br label %deque_insert_impl.exit

36:                                               ; preds = %27
  %37 = sub nsw i64 0, %.val29.i
  %38 = icmp sle i64 %.01726.ph, %37
  %39 = icmp eq i64 %.01726.ph, 0
  %or.cond.i = or i1 %39, %38
  br i1 %or.cond.i, label %40, label %48

40:                                               ; preds = %36
  %41 = load i32, ptr %20, align 8, !tbaa !20
  %42 = icmp slt i32 %41, 0
  br i1 %42, label %deque_appendleft_impl.exit.i, label %43

43:                                               ; preds = %40
  %44 = add nuw i32 %41, 1
  store i32 %44, ptr %20, align 8, !tbaa !20
  %.pre37.i = load i64, ptr %22, align 8, !tbaa !45
  br label %deque_appendleft_impl.exit.i

deque_appendleft_impl.exit.i:                     ; preds = %43, %40
  %45 = phi i64 [ %23, %40 ], [ %.pre37.i, %43 ]
  %46 = tail call fastcc i32 @deque_appendleft_lock_held(ptr noundef nonnull %0, ptr noundef nonnull %20, i64 noundef %45)
  %47 = icmp slt i32 %46, 0
  %._Py_NoneStruct.i30.i = select i1 %47, ptr null, ptr @_Py_NoneStruct
  br label %deque_insert_impl.exit

48:                                               ; preds = %36
  %49 = sub nsw i64 0, %.01726.ph
  %50 = tail call fastcc i32 @_deque_rotate(ptr noundef nonnull %0, i64 noundef %49)
  %.not27.i = icmp eq i32 %50, 0
  br i1 %.not27.i, label %51, label %deque_insert_impl.exit

51:                                               ; preds = %48
  %52 = icmp slt i64 %.01726.ph, 0
  br i1 %52, label %61, label %53

53:                                               ; preds = %51
  %54 = load i32, ptr %20, align 8, !tbaa !20
  %55 = icmp slt i32 %54, 0
  br i1 %55, label %deque_appendleft_impl.exit32.i, label %56

56:                                               ; preds = %53
  %57 = add nuw i32 %54, 1
  store i32 %57, ptr %20, align 8, !tbaa !20
  br label %deque_appendleft_impl.exit32.i

deque_appendleft_impl.exit32.i:                   ; preds = %56, %53
  %58 = load i64, ptr %22, align 8, !tbaa !45
  %59 = tail call fastcc i32 @deque_appendleft_lock_held(ptr noundef nonnull %0, ptr noundef nonnull %20, i64 noundef %58)
  %60 = icmp slt i32 %59, 0
  br i1 %60, label %deque_insert_impl.exit, label %.thread34.i

61:                                               ; preds = %51
  %62 = tail call fastcc ptr @deque_append_impl(ptr noundef nonnull %0, ptr noundef %20)
  %63 = icmp eq ptr %62, null
  br i1 %63, label %deque_insert_impl.exit, label %.thread34.i

.thread34.i:                                      ; preds = %61, %deque_appendleft_impl.exit32.i
  %.036.i = phi ptr [ %62, %61 ], [ @_Py_NoneStruct, %deque_appendleft_impl.exit32.i ]
  %64 = load i32, ptr %.036.i, align 8, !tbaa !20
  %.not.i.i = icmp sgt i32 %64, -1
  br i1 %.not.i.i, label %65, label %Py_DECREF.exit.i

65:                                               ; preds = %.thread34.i
  %66 = add nsw i32 %64, -1
  store i32 %66, ptr %.036.i, align 8, !tbaa !20
  %67 = icmp eq i32 %66, 0
  br i1 %67, label %68, label %Py_DECREF.exit.i

68:                                               ; preds = %65
  tail call void @_Py_Dealloc(ptr noundef nonnull %.036.i) #9
  br label %Py_DECREF.exit.i

Py_DECREF.exit.i:                                 ; preds = %68, %65, %.thread34.i
  %69 = tail call fastcc i32 @_deque_rotate(ptr noundef nonnull %0, i64 noundef %.01726.ph)
  %.not28.i = icmp eq i32 %69, 0
  %_Py_NoneStruct..i = select i1 %.not28.i, ptr @_Py_NoneStruct, ptr null
  br label %deque_insert_impl.exit

deque_insert_impl.exit:                           ; preds = %Py_DECREF.exit.i, %61, %deque_appendleft_impl.exit32.i, %48, %deque_appendleft_impl.exit.i, %deque_append_impl.exit.i, %25, %Py_DECREF.exit.thread, %4
  %.018 = phi ptr [ null, %4 ], [ null, %Py_DECREF.exit.thread ], [ null, %25 ], [ %._Py_NoneStruct.i.i, %deque_append_impl.exit.i ], [ %._Py_NoneStruct.i30.i, %deque_appendleft_impl.exit.i ], [ null, %48 ], [ null, %61 ], [ %_Py_NoneStruct..i, %Py_DECREF.exit.i ], [ null, %deque_appendleft_impl.exit32.i ]
  ret ptr %.018
}